; Function Attrs: nounwind sspstrong uwtable
define dso_local void @qemu_input_queue_btn(ptr noundef %src, i32 noundef %btn, i1 noundef zeroext %down) local_unnamed_addr #0 {
if.end18.i:
  %bevt = alloca %struct.InputBtnEvent, align 4
  %evt = alloca %struct.InputEvent, align 8
  %frombool = zext i1 %down to i8
  store i32 %btn, ptr %bevt, align 4
  %down1 = getelementptr inbounds nuw i8, ptr %bevt, i64 4
  store i8 %frombool, ptr %down1, align 4
  store i32 1, ptr %evt, align 8
  %u = getelementptr inbounds nuw i8, ptr %evt, i64 8
  store ptr %bevt, ptr %u, align 8
  %call.i = call zeroext i1 @runstate_is_running() #12
  br i1 %call.i, label %if.end22.i, label %land.lhs.true19.i

land.lhs.true19.i:                                ; preds = %if.end18.i
  %call20.i = call zeroext i1 @runstate_check(i32 noundef 12) #12
  br i1 %call20.i, label %if.end22.i, label %qemu_input_event_send.exit

if.end22.i:                                       ; preds = %land.lhs.true19.i, %if.end18.i
  call void @replay_input_event(ptr noundef %src, ptr noundef nonnull %evt) #12
  br label %qemu_input_event_send.exit

qemu_input_event_send.exit:                       ; preds = %land.lhs.true19.i, %if.end22.i
  ret void
}